target datalayout = "e-m:e-p270:32:32-p271:32:32-p272:64:64-i64:64-i128:128-f80:128-n8:16:32:64-S128"
target triple = "x86_64-pc-linux-gnu"

@.str.150 = private unnamed_addr constant [23 x i8] c"temp-rewriteaof-%d.aof\00", align 1
@.str.157 = private unnamed_addr constant [26 x i8] c"temp-rewriteaof-bg-%d.aof\00", align 1

; Function Attrs: nounwind uwtable
define dso_local void @aofRemoveTempFile(i32 noundef %0) #0 {
  %2 = alloca i32, align 4
  %3 = alloca [256 x i8], align 16
  store i32 %0, ptr %2, align 4, !tbaa !22
  call void @llvm.lifetime.start.p0(i64 256, ptr %3) #12
  %4 = getelementptr inbounds [256 x i8], ptr %3, i64 0, i64 0
  %5 = load i32, ptr %2, align 4, !tbaa !22
  %6 = call i32 (ptr, i64, ptr, ...) @snprintf(ptr noundef %4, i64 noundef 256, ptr noundef @.str.157, i32 noundef %5) #12
  %7 = getelementptr inbounds [256 x i8], ptr %3, i64 0, i64 0
  %8 = call i32 @bg_unlink(ptr noundef %7)
  %9 = getelementptr inbounds [256 x i8], ptr %3, i64 0, i64 0
  %10 = load i32, ptr %2, align 4, !tbaa !22
  %11 = call i32 (ptr, i64, ptr, ...) @snprintf(ptr noundef %9, i64 noundef 256, ptr noundef @.str.150, i32 noundef %10) #12
  %12 = getelementptr inbounds [256 x i8], ptr %3, i64 0, i64 0
  %13 = call i32 @bg_unlink(ptr noundef %12)
  call void @llvm.lifetime.end.p0(i64 256, ptr %3) #12
  ret void
}