; Function Attrs: nounwind uwtable
define dso_local void @aofRemoveTempFile(i32 noundef %0) local_unnamed_addr #0 {
  %2 = alloca [256 x i8], align 16
  call void @llvm.lifetime.start.p0(i64 256, ptr nonnull %2) #20
  %3 = call i32 (ptr, i64, ptr, ...) @snprintf(ptr noundef nonnull dereferenceable(1) %2, i64 noundef 256, ptr noundef nonnull @.str.157, i32 noundef %0) #20
  %4 = call i32 @bg_unlink(ptr noundef nonnull %2) #20
  %5 = call i32 (ptr, i64, ptr, ...) @snprintf(ptr noundef nonnull dereferenceable(1) %2, i64 noundef 256, ptr noundef nonnull @.str.150, i32 noundef %0) #20
  %6 = call i32 @bg_unlink(ptr noundef nonnull %2) #20
  call void @llvm.lifetime.end.p0(i64 256, ptr nonnull %2) #20
  ret void
}